; Function Attrs: nounwind uwtable
define hidden void @opj_dump_codec(ptr noundef readonly %0, i32 noundef %1, ptr noundef %2) local_unnamed_addr #2 {
  %.not = icmp eq ptr %0, null
  br i1 %.not, label %9, label %4

4:                                                ; preds = %3
  %5 = getelementptr inbounds nuw i8, ptr %0, i64 160
  %6 = load ptr, ptr %5, align 8, !tbaa !16
  %7 = getelementptr inbounds nuw i8, ptr %0, i64 96
  %8 = load ptr, ptr %7, align 8, !tbaa !21
  tail call void %6(ptr noundef %8, i32 noundef %1, ptr noundef %2) #8
  br label %9

9:                                                ; preds = %3, %4
  ret void
}